; Function Attrs: mustprogress nofree norecurse nosync nounwind willreturn memory(argmem: readwrite) uwtable
define void @_ZN10ColorValueC2E6QColor(ptr nocapture noundef nonnull writeonly align 8 dereferenceable(24) %0, ptr nocapture noundef readonly %1) unnamed_addr #2 align 2 {
  store ptr getelementptr inbounds ({ [25 x ptr] }, ptr @_ZTV10ColorValue, i64 0, i32 0, i64 2), ptr %0, align 8
  %3 = getelementptr inbounds i8, ptr %0, i64 8
  %4 = load i32, ptr %1, align 4
  store i32 %4, ptr %3, align 8
  %5 = getelementptr inbounds i8, ptr %0, i64 12
  %6 = getelementptr inbounds i8, ptr %1, i64 4
  tail call void @llvm.memcpy.p0.p0.i64(ptr noundef nonnull align 4 dereferenceable(10) %5, ptr noundef nonnull align 4 dereferenceable(10) %6, i64 10, i1 false)
  ret void
}